; Function Attrs: mustprogress nofree norecurse nosync nounwind willreturn memory(argmem: readwrite) uwtable
define dso_local void @XML_SetUserData(ptr noundef %0, ptr noundef %1) local_unnamed_addr #4 {
  %3 = icmp eq ptr %0, null
  br i1 %3, label %10, label %4

4:                                                ; preds = %2
  %5 = getelementptr inbounds nuw i8, ptr %0, i64 8
  %6 = load ptr, ptr %5, align 8, !tbaa !131
  %7 = load ptr, ptr %0, align 8, !tbaa !130
  %8 = icmp eq ptr %6, %7
  store ptr %1, ptr %0, align 8, !tbaa !130
  br i1 %8, label %9, label %10

9:                                                ; preds = %4
  store ptr %1, ptr %5, align 8, !tbaa !131
  br label %10

10:                                               ; preds = %4, %2, %9
  ret void
}